; Function Attrs: mustprogress nounwind uwtable
define dso_local void @_ZN7Cleaner5ResetEv(ptr noundef nonnull align 8 dereferenceable(156) initializes((136, 140), (152, 156)) %0) local_unnamed_addr #7 align 2 personality ptr @__gxx_personality_v0 {
  %2 = getelementptr inbounds nuw i8, ptr %0, i64 152
  store i32 0, ptr %2, align 8, !tbaa !42
  %3 = getelementptr inbounds nuw i8, ptr %0, i64 136
  store i32 0, ptr %3, align 8, !tbaa !40
  %4 = getelementptr inbounds nuw i8, ptr %0, i64 40
  %5 = getelementptr inbounds nuw i8, ptr %0, i64 56
  %6 = load ptr, ptr %5, align 8, !tbaa !36
  invoke void @_ZNSt8_Rb_treeINSt7__cxx1112basic_stringIcSt11char_traitsIcESaIcEEES5_St9_IdentityIS5_ESt4lessIS5_ESaIS5_EE8_M_eraseEPSt13_Rb_tree_nodeIS5_E(ptr noundef nonnull align 8 dereferenceable(48) %4, ptr noundef %6)
          to label %_ZNSt3setINSt7__cxx1112basic_stringIcSt11char_traitsIcESaIcEEESt4lessIS5_ESaIS5_EE5clearEv.exit unwind label %7

7:                                                ; preds = %1
  %8 = landingpad { ptr, i32 }
          catch ptr null
  %9 = extractvalue { ptr, i32 } %8, 0
  tail call void @__clang_call_terminate(ptr %9) #24
  unreachable

_ZNSt3setINSt7__cxx1112basic_stringIcSt11char_traitsIcESaIcEEESt4lessIS5_ESaIS5_EE5clearEv.exit: ; preds = %1
  %10 = getelementptr inbounds nuw i8, ptr %0, i64 48
  store ptr null, ptr %5, align 8, !tbaa !36
  %11 = getelementptr inbounds nuw i8, ptr %0, i64 64
  store ptr %10, ptr %11, align 8, !tbaa !37
  %12 = getelementptr inbounds nuw i8, ptr %0, i64 72
  store ptr %10, ptr %12, align 8, !tbaa !38
  %13 = getelementptr inbounds nuw i8, ptr %0, i64 80
  store i64 0, ptr %13, align 8, !tbaa !39
  %14 = getelementptr inbounds nuw i8, ptr %0, i64 88
  %15 = getelementptr inbounds nuw i8, ptr %0, i64 104
  %16 = load ptr, ptr %15, align 8, !tbaa !36
  invoke void @_ZNSt8_Rb_treeIP4NodeS1_St9_IdentityIS1_ESt4lessIS1_ESaIS1_EE8_M_eraseEPSt13_Rb_tree_nodeIS1_E(ptr noundef nonnull align 8 dereferenceable(48) %14, ptr noundef %16)
          to label %_ZNSt3setIP4NodeSt4lessIS1_ESaIS1_EE5clearEv.exit unwind label %17

17:                                               ; preds = %_ZNSt3setINSt7__cxx1112basic_stringIcSt11char_traitsIcESaIcEEESt4lessIS5_ESaIS5_EE5clearEv.exit
  %18 = landingpad { ptr, i32 }
          catch ptr null
  %19 = extractvalue { ptr, i32 } %18, 0
  tail call void @__clang_call_terminate(ptr %19) #24
  unreachable

_ZNSt3setIP4NodeSt4lessIS1_ESaIS1_EE5clearEv.exit: ; preds = %_ZNSt3setINSt7__cxx1112basic_stringIcSt11char_traitsIcESaIcEEESt4lessIS5_ESaIS5_EE5clearEv.exit
  %20 = getelementptr inbounds nuw i8, ptr %0, i64 96
  store ptr null, ptr %15, align 8, !tbaa !36
  %21 = getelementptr inbounds nuw i8, ptr %0, i64 112
  store ptr %20, ptr %21, align 8, !tbaa !37
  %22 = getelementptr inbounds nuw i8, ptr %0, i64 120
  store ptr %20, ptr %22, align 8, !tbaa !38
  %23 = getelementptr inbounds nuw i8, ptr %0, i64 128
  store i64 0, ptr %23, align 8, !tbaa !39
  ret void
}